; Function Attrs: mustprogress uwtable
define noundef ptr @vzone_openID_77(ptr noundef %0, i32 noundef %1) local_unnamed_addr #0 personality ptr @__gxx_personality_v0 {
  %3 = alloca %"class.icu_77::UnicodeString", align 8
  %4 = alloca %"class.icu_77::ConstChar16Ptr", align 8
  call void @llvm.lifetime.start.p0(i64 64, ptr nonnull %3) #7
  %5 = icmp eq i32 %1, -1
  %6 = zext i1 %5 to i8
  store ptr %0, ptr %4, align 8, !tbaa !3
  invoke void @_ZN6icu_7713UnicodeStringC1EaNS_14ConstChar16PtrEi(ptr noundef nonnull align 8 dereferenceable(64) %3, i8 noundef signext %6, ptr noundef nonnull %4, i32 noundef %1)
          to label %7 unwind label %11

7:                                                ; preds = %2
  %8 = load ptr, ptr %4, align 8, !tbaa !3
  call void asm sideeffect "", "rm,~{memory},~{dirflag},~{fpsr},~{flags}"(ptr %8) #7, !srcloc !9
  %9 = invoke noundef ptr @_ZN6icu_779VTimeZone19createVTimeZoneByIDERKNS_13UnicodeStringE(ptr noundef nonnull align 8 dereferenceable(64) %3)
          to label %10 unwind label %14

10:                                               ; preds = %7
  call void @_ZN6icu_7713UnicodeStringD1Ev(ptr noundef nonnull align 8 dereferenceable(64) %3) #7
  call void @llvm.lifetime.end.p0(i64 64, ptr nonnull %3) #7
  ret ptr %9

11:                                               ; preds = %2
  %12 = landingpad { ptr, i32 }
          cleanup
  %13 = load ptr, ptr %4, align 8, !tbaa !3
  call void asm sideeffect "", "rm,~{memory},~{dirflag},~{fpsr},~{flags}"(ptr %13) #7, !srcloc !9
  br label %16

14:                                               ; preds = %7
  %15 = landingpad { ptr, i32 }
          cleanup
  call void @_ZN6icu_7713UnicodeStringD1Ev(ptr noundef nonnull align 8 dereferenceable(64) %3) #7
  br label %16

16:                                               ; preds = %14, %11
  %.pn = phi { ptr, i32 } [ %15, %14 ], [ %12, %11 ]
  call void @llvm.lifetime.end.p0(i64 64, ptr nonnull %3) #7
  resume { ptr, i32 } %.pn
}